target datalayout = "e-m:e-p270:32:32-p271:32:32-p272:64:64-i64:64-i128:128-f80:128-n8:16:32:64-S128"
target triple = "x86_64-pc-linux-gnu"

%"class.std::__shared_count" = type { ptr }
%"class.OpenColorIO_v2_5dev::FormatMetadataImpl" = type { %"class.OpenColorIO_v2_5dev::FormatMetadata", %"class.std::__cxx11::basic_string", %"class.std::__cxx11::basic_string", %"class.std::vector", %"class.std::vector.3" }
%"class.OpenColorIO_v2_5dev::FormatMetadata" = type { ptr }
%"class.std::__cxx11::basic_string" = type { %"struct.std::__cxx11::basic_string<char>::_Alloc_hider", i64, %union.anon }
%"struct.std::__cxx11::basic_string<char>::_Alloc_hider" = type { ptr }
%union.anon = type { i64, [8 x i8] }
%"class.std::vector" = type { %"struct.std::_Vector_base" }
%"struct.std::_Vector_base" = type { %"struct.std::_Vector_base<std::pair<std::__cxx11::basic_string<char>, std::__cxx11::basic_string<char>>, std::allocator<std::pair<std::__cxx11::basic_string<char>, std::__cxx11::basic_string<char>>>>::_Vector_impl" }
%"struct.std::_Vector_base<std::pair<std::__cxx11::basic_string<char>, std::__cxx11::basic_string<char>>, std::allocator<std::pair<std::__cxx11::basic_string<char>, std::__cxx11::basic_string<char>>>>::_Vector_impl" = type { %"struct.std::_Vector_base<std::pair<std::__cxx11::basic_string<char>, std::__cxx11::basic_string<char>>, std::allocator<std::pair<std::__cxx11::basic_string<char>, std::__cxx11::basic_string<char>>>>::_Vector_impl_data" }
%"struct.std::_Vector_base<std::pair<std::__cxx11::basic_string<char>, std::__cxx11::basic_string<char>>, std::allocator<std::pair<std::__cxx11::basic_string<char>, std::__cxx11::basic_string<char>>>>::_Vector_impl_data" = type { ptr, ptr, ptr }
%"class.std::vector.3" = type { %"struct.std::_Vector_base.4" }
%"struct.std::_Vector_base.4" = type { %"struct.std::_Vector_base<OpenColorIO_v2_5dev::FormatMetadataImpl, std::allocator<OpenColorIO_v2_5dev::FormatMetadataImpl>>::_Vector_impl" }
%"struct.std::_Vector_base<OpenColorIO_v2_5dev::FormatMetadataImpl, std::allocator<OpenColorIO_v2_5dev::FormatMetadataImpl>>::_Vector_impl" = type { %"struct.std::_Vector_base<OpenColorIO_v2_5dev::FormatMetadataImpl, std::allocator<OpenColorIO_v2_5dev::FormatMetadataImpl>>::_Vector_impl_data" }
%"struct.std::_Vector_base<OpenColorIO_v2_5dev::FormatMetadataImpl, std::allocator<OpenColorIO_v2_5dev::FormatMetadataImpl>>::_Vector_impl_data" = type { ptr, ptr, ptr }
%"class.std::shared_ptr.17" = type { %"class.std::__shared_ptr.18" }
%"class.std::__shared_ptr.18" = type { ptr, %"class.std::__shared_count" }
%"class.OpenColorIO_v2_5dev::OpRcPtrVec" = type { %"class.std::vector.45", %"class.OpenColorIO_v2_5dev::FormatMetadataImpl" }
%"class.std::vector.45" = type { %"struct.std::_Vector_base.46" }
%"struct.std::_Vector_base.46" = type { %"struct.std::_Vector_base<std::shared_ptr<OpenColorIO_v2_5dev::Op>, std::allocator<std::shared_ptr<OpenColorIO_v2_5dev::Op>>>::_Vector_impl" }
%"struct.std::_Vector_base<std::shared_ptr<OpenColorIO_v2_5dev::Op>, std::allocator<std::shared_ptr<OpenColorIO_v2_5dev::Op>>>::_Vector_impl" = type { %"struct.std::_Vector_base<std::shared_ptr<OpenColorIO_v2_5dev::Op>, std::allocator<std::shared_ptr<OpenColorIO_v2_5dev::Op>>>::_Vector_impl_data" }
%"struct.std::_Vector_base<std::shared_ptr<OpenColorIO_v2_5dev::Op>, std::allocator<std::shared_ptr<OpenColorIO_v2_5dev::Op>>>::_Vector_impl_data" = type { ptr, ptr, ptr }

; Function Attrs: mustprogress nounwind uwtable
define linkonce_odr hidden noundef i64 @_ZNKSt6vectorISt10shared_ptrIN19OpenColorIO_v2_5dev2OpEESaIS3_EE4sizeEv(ptr noundef nonnull align 8 dereferenceable(24) %0) #3 comdat align 2 {
  %2 = alloca ptr, align 8
  store ptr %0, ptr %2, align 8, !tbaa !139
  %3 = load ptr, ptr %2, align 8
  %4 = getelementptr inbounds nuw %"struct.std::_Vector_base.46", ptr %3, i32 0, i32 0
  %5 = getelementptr inbounds nuw %"struct.std::_Vector_base<std::shared_ptr<OpenColorIO_v2_5dev::Op>, std::allocator<std::shared_ptr<OpenColorIO_v2_5dev::Op>>>::_Vector_impl_data", ptr %4, i32 0, i32 1
  %6 = load ptr, ptr %5, align 8, !tbaa !141
  %7 = getelementptr inbounds nuw %"struct.std::_Vector_base.46", ptr %3, i32 0, i32 0
  %8 = getelementptr inbounds nuw %"struct.std::_Vector_base<std::shared_ptr<OpenColorIO_v2_5dev::Op>, std::allocator<std::shared_ptr<OpenColorIO_v2_5dev::Op>>>::_Vector_impl_data", ptr %7, i32 0, i32 0
  %9 = load ptr, ptr %8, align 8, !tbaa !144
  %10 = ptrtoint ptr %6 to i64
  %11 = ptrtoint ptr %9 to i64
  %12 = sub i64 %10, %11
  %13 = sdiv exact i64 %12, 16
  ret i64 %13
}

; Function Attrs: mustprogress nounwind uwtable
define linkonce_odr hidden noundef nonnull align 8 dereferenceable(120) ptr @_ZN19OpenColorIO_v2_5dev10OpRcPtrVec17getFormatMetadataEv(ptr noundef nonnull align 8 dereferenceable(144) %0) #3 comdat align 2 {
  %2 = alloca ptr, align 8
  store ptr %0, ptr %2, align 8, !tbaa !95
  %3 = load ptr, ptr %2, align 8
  %4 = getelementptr inbounds nuw %"class.OpenColorIO_v2_5dev::OpRcPtrVec", ptr %3, i32 0, i32 1
  ret ptr %4
}

; Function Attrs: mustprogress nounwind uwtable
define linkonce_odr hidden noundef i64 @_ZNK19OpenColorIO_v2_5dev10OpRcPtrVec4sizeEv(ptr noundef nonnull align 8 dereferenceable(144) %0) #3 comdat align 2 {
  %2 = alloca ptr, align 8
  store ptr %0, ptr %2, align 8, !tbaa !95
  %3 = load ptr, ptr %2, align 8
  %4 = getelementptr inbounds nuw %"class.OpenColorIO_v2_5dev::OpRcPtrVec", ptr %3, i32 0, i32 0
  %5 = call noundef i64 @_ZNKSt6vectorISt10shared_ptrIN19OpenColorIO_v2_5dev2OpEESaIS3_EE4sizeEv(ptr noundef nonnull align 8 dereferenceable(24) %4) #21
  ret i64 %5
}

; Function Attrs: mustprogress uwtable
define hidden void @_ZN19OpenColorIO_v2_5dev13BuildGroupOpsERNS_10OpRcPtrVecERKNS_6ConfigERKSt10shared_ptrIKNS_7ContextEERKNS_14GroupTransformENS_18TransformDirectionE(ptr noundef nonnull align 8 dereferenceable(144) %0, ptr noundef nonnull align 8 dereferenceable(8) %1, ptr noundef nonnull align 8 dereferenceable(16) %2, ptr noundef nonnull align 8 dereferenceable(8) %3, i32 noundef %4) #0 personality ptr @__gxx_personality_v0 {
  %6 = alloca ptr, align 8
  %7 = alloca ptr, align 8
  %8 = alloca ptr, align 8
  %9 = alloca ptr, align 8
  %10 = alloca i32, align 4
  %11 = alloca ptr, align 8
  %12 = alloca i32, align 4
  %13 = alloca i32, align 4
  %14 = alloca %"class.std::shared_ptr.17", align 8
  %15 = alloca ptr, align 8
  %16 = alloca i32, align 4
  %17 = alloca i32, align 4
  %18 = alloca %"class.std::shared_ptr.17", align 8
  store ptr %0, ptr %6, align 8, !tbaa !95
  store ptr %1, ptr %7, align 8, !tbaa !97
  store ptr %2, ptr %8, align 8, !tbaa !99
  store ptr %3, ptr %9, align 8, !tbaa !3
  store i32 %4, ptr %10, align 4, !tbaa !54
  %19 = load ptr, ptr %6, align 8, !tbaa !95
  %20 = call noundef i64 @_ZNK19OpenColorIO_v2_5dev10OpRcPtrVec4sizeEv(ptr noundef nonnull align 8 dereferenceable(144) %19)
  %21 = icmp eq i64 %20, 0
  br i1 %21, label %22, label %35

22:                                               ; preds = %5
  call void @llvm.lifetime.start.p0(i64 8, ptr %11) #21
  %23 = load ptr, ptr %6, align 8, !tbaa !95
  %24 = call noundef nonnull align 8 dereferenceable(120) ptr @_ZN19OpenColorIO_v2_5dev10OpRcPtrVec17getFormatMetadataEv(ptr noundef nonnull align 8 dereferenceable(144) %23)
  store ptr %24, ptr %11, align 8, !tbaa !101
  %25 = load ptr, ptr %9, align 8, !tbaa !3
  %26 = load ptr, ptr %25, align 8, !tbaa !8
  %27 = getelementptr inbounds ptr, ptr %26, i64 7
  %28 = load ptr, ptr %27, align 8
  %29 = call noundef nonnull align 8 dereferenceable(8) ptr %28(ptr noundef nonnull align 8 dereferenceable(8) %25) #21
  %30 = load ptr, ptr %11, align 8, !tbaa !101
  %31 = load ptr, ptr %30, align 8, !tbaa !8
  %32 = getelementptr inbounds ptr, ptr %31, i64 14
  %33 = load ptr, ptr %32, align 8
  %34 = call noundef nonnull align 8 dereferenceable(8) ptr %33(ptr noundef nonnull align 8 dereferenceable(120) %30, ptr noundef nonnull align 8 dereferenceable(8) %29)
  call void @llvm.lifetime.end.p0(i64 8, ptr %11) #21
  br label %35

35:                                               ; preds = %22, %5
  call void @llvm.lifetime.start.p0(i64 4, ptr %12) #21
  %36 = load i32, ptr %10, align 4, !tbaa !54
  %37 = load ptr, ptr %9, align 8, !tbaa !3
  %38 = load ptr, ptr %37, align 8, !tbaa !8
  %39 = getelementptr inbounds ptr, ptr %38, i64 1
  %40 = load ptr, ptr %39, align 8
  %41 = call noundef i32 %40(ptr noundef nonnull align 8 dereferenceable(8) %37) #21
  %42 = call noundef i32 @_ZN19OpenColorIO_v2_5dev26CombineTransformDirectionsENS_18TransformDirectionES0_(i32 noundef %36, i32 noundef %41)
  store i32 %42, ptr %12, align 4, !tbaa !54
  %43 = load i32, ptr %12, align 4, !tbaa !54
  switch i32 %43, label %101 [
    i32 0, label %44
    i32 1, label %72
  ]

44:                                               ; preds = %35
  call void @llvm.lifetime.start.p0(i64 4, ptr %13) #21
  store i32 0, ptr %13, align 4, !tbaa !68
  br label %45

45:                                               ; preds = %64, %44
  %46 = load i32, ptr %13, align 4, !tbaa !68
  %47 = load ptr, ptr %9, align 8, !tbaa !3
  %48 = load ptr, ptr %47, align 8, !tbaa !8
  %49 = getelementptr inbounds ptr, ptr %48, i64 11
  %50 = load ptr, ptr %49, align 8
  %51 = call noundef i32 %50(ptr noundef nonnull align 8 dereferenceable(8) %47) #21
  %52 = icmp slt i32 %46, %51
  br i1 %52, label %54, label %53

53:                                               ; preds = %45
  call void @llvm.lifetime.end.p0(i64 4, ptr %13) #21
  br label %71

54:                                               ; preds = %45
  call void @llvm.lifetime.start.p0(i64 16, ptr %14) #21
  %55 = load ptr, ptr %9, align 8, !tbaa !3
  %56 = load i32, ptr %13, align 4, !tbaa !68
  %57 = load ptr, ptr %55, align 8, !tbaa !8
  %58 = getelementptr inbounds ptr, ptr %57, i64 9
  %59 = load ptr, ptr %58, align 8
  call void %59(ptr dead_on_unwind writable sret(%"class.std::shared_ptr.17") align 8 %14, ptr noundef nonnull align 8 dereferenceable(8) %55, i32 noundef %56)
  %60 = load ptr, ptr %6, align 8, !tbaa !95
  %61 = load ptr, ptr %7, align 8, !tbaa !97
  %62 = load ptr, ptr %8, align 8, !tbaa !99
  invoke void @_ZN19OpenColorIO_v2_5dev8BuildOpsERNS_10OpRcPtrVecERKNS_6ConfigERKSt10shared_ptrIKNS_7ContextEERKS5_IKNS_9TransformEENS_18TransformDirectionE(ptr noundef nonnull align 8 dereferenceable(144) %60, ptr noundef nonnull align 8 dereferenceable(8) %61, ptr noundef nonnull align 8 dereferenceable(16) %62, ptr noundef nonnull align 8 dereferenceable(16) %14, i32 noundef 0)
          to label %63 unwind label %67

63:                                               ; preds = %54
  call void @_ZNSt12__shared_ptrIKN19OpenColorIO_v2_5dev9TransformELN9__gnu_cxx12_Lock_policyE2EED2Ev(ptr noundef nonnull align 8 dereferenceable(16) %14) #21
  call void @llvm.lifetime.end.p0(i64 16, ptr %14) #21
  br label %64

64:                                               ; preds = %63
  %65 = load i32, ptr %13, align 4, !tbaa !68
  %66 = add nsw i32 %65, 1
  store i32 %66, ptr %13, align 4, !tbaa !68
  br label %45, !llvm.loop !102

67:                                               ; preds = %54
  %68 = landingpad { ptr, i32 }
          cleanup
  %69 = extractvalue { ptr, i32 } %68, 0
  store ptr %69, ptr %15, align 8
  %70 = extractvalue { ptr, i32 } %68, 1
  store i32 %70, ptr %16, align 4
  call void @_ZNSt12__shared_ptrIKN19OpenColorIO_v2_5dev9TransformELN9__gnu_cxx12_Lock_policyE2EED2Ev(ptr noundef nonnull align 8 dereferenceable(16) %14) #21
  call void @llvm.lifetime.end.p0(i64 16, ptr %14) #21
  call void @llvm.lifetime.end.p0(i64 4, ptr %13) #21
  br label %102

71:                                               ; preds = %53
  br label %101

72:                                               ; preds = %35
  call void @llvm.lifetime.start.p0(i64 4, ptr %17) #21
  %73 = load ptr, ptr %9, align 8, !tbaa !3
  %74 = load ptr, ptr %73, align 8, !tbaa !8
  %75 = getelementptr inbounds ptr, ptr %74, i64 11
  %76 = load ptr, ptr %75, align 8
  %77 = call noundef i32 %76(ptr noundef nonnull align 8 dereferenceable(8) %73) #21
  %78 = sub nsw i32 %77, 1
  store i32 %78, ptr %17, align 4, !tbaa !68
  br label %79

79:                                               ; preds = %93, %72
  %80 = load i32, ptr %17, align 4, !tbaa !68
  %81 = icmp sge i32 %80, 0
  br i1 %81, label %83, label %82

82:                                               ; preds = %79
  call void @llvm.lifetime.end.p0(i64 4, ptr %17) #21
  br label %100

83:                                               ; preds = %79
  call void @llvm.lifetime.start.p0(i64 16, ptr %18) #21
  %84 = load ptr, ptr %9, align 8, !tbaa !3
  %85 = load i32, ptr %17, align 4, !tbaa !68
  %86 = load ptr, ptr %84, align 8, !tbaa !8
  %87 = getelementptr inbounds ptr, ptr %86, i64 9
  %88 = load ptr, ptr %87, align 8
  call void %88(ptr dead_on_unwind writable sret(%"class.std::shared_ptr.17") align 8 %18, ptr noundef nonnull align 8 dereferenceable(8) %84, i32 noundef %85)
  %89 = load ptr, ptr %6, align 8, !tbaa !95
  %90 = load ptr, ptr %7, align 8, !tbaa !97
  %91 = load ptr, ptr %8, align 8, !tbaa !99
  invoke void @_ZN19OpenColorIO_v2_5dev8BuildOpsERNS_10OpRcPtrVecERKNS_6ConfigERKSt10shared_ptrIKNS_7ContextEERKS5_IKNS_9TransformEENS_18TransformDirectionE(ptr noundef nonnull align 8 dereferenceable(144) %89, ptr noundef nonnull align 8 dereferenceable(8) %90, ptr noundef nonnull align 8 dereferenceable(16) %91, ptr noundef nonnull align 8 dereferenceable(16) %18, i32 noundef 1)
          to label %92 unwind label %96

92:                                               ; preds = %83
  call void @_ZNSt12__shared_ptrIKN19OpenColorIO_v2_5dev9TransformELN9__gnu_cxx12_Lock_policyE2EED2Ev(ptr noundef nonnull align 8 dereferenceable(16) %18) #21
  call void @llvm.lifetime.end.p0(i64 16, ptr %18) #21
  br label %93

93:                                               ; preds = %92
  %94 = load i32, ptr %17, align 4, !tbaa !68
  %95 = add nsw i32 %94, -1
  store i32 %95, ptr %17, align 4, !tbaa !68
  br label %79, !llvm.loop !103

96:                                               ; preds = %83
  %97 = landingpad { ptr, i32 }
          cleanup
  %98 = extractvalue { ptr, i32 } %97, 0
  store ptr %98, ptr %15, align 8
  %99 = extractvalue { ptr, i32 } %97, 1
  store i32 %99, ptr %16, align 4
  call void @_ZNSt12__shared_ptrIKN19OpenColorIO_v2_5dev9TransformELN9__gnu_cxx12_Lock_policyE2EED2Ev(ptr noundef nonnull align 8 dereferenceable(16) %18) #21
  call void @llvm.lifetime.end.p0(i64 16, ptr %18) #21
  call void @llvm.lifetime.end.p0(i64 4, ptr %17) #21
  br label %102

100:                                              ; preds = %82
  br label %101

101:                                              ; preds = %35, %100, %71
  call void @llvm.lifetime.end.p0(i64 4, ptr %12) #21
  ret void

102:                                              ; preds = %96, %67
  call void @llvm.lifetime.end.p0(i64 4, ptr %12) #21
  br label %103

103:                                              ; preds = %102
  %104 = load ptr, ptr %15, align 8
  %105 = load i32, ptr %16, align 4
  %106 = insertvalue { ptr, i32 } poison, ptr %104, 0
  %107 = insertvalue { ptr, i32 } %106, i32 %105, 1
  resume { ptr, i32 } %107
}