; Function Attrs: mustprogress uwtable
define hidden void @_ZN19OpenColorIO_v2_5dev13BuildGroupOpsERNS_10OpRcPtrVecERKNS_6ConfigERKSt10shared_ptrIKNS_7ContextEERKNS_14GroupTransformENS_18TransformDirectionE(ptr noundef nonnull align 8 dereferenceable(144) %0, ptr noundef nonnull align 8 dereferenceable(8) %1, ptr noundef nonnull align 8 dereferenceable(16) %2, ptr noundef nonnull align 8 dereferenceable(8) %3, i32 noundef %4) local_unnamed_addr #0 personality ptr @__gxx_personality_v0 {
  %6 = alloca %"class.std::shared_ptr.17", align 8
  %7 = alloca %"class.std::shared_ptr.17", align 8
  %8 = getelementptr inbounds nuw i8, ptr %0, i64 8
  %9 = load ptr, ptr %8, align 8, !tbaa !88
  %10 = load ptr, ptr %0, align 8, !tbaa !91
  %11 = icmp eq ptr %9, %10
  br i1 %11, label %12, label %22

12:                                               ; preds = %5
  %13 = getelementptr inbounds nuw i8, ptr %0, i64 24
  %14 = load ptr, ptr %3, align 8, !tbaa !3
  %15 = getelementptr inbounds nuw i8, ptr %14, i64 56
  %16 = load ptr, ptr %15, align 8
  %17 = tail call noundef nonnull align 8 dereferenceable(8) ptr %16(ptr noundef nonnull align 8 dereferenceable(8) %3) #24
  %18 = load ptr, ptr %13, align 8, !tbaa !3
  %19 = getelementptr inbounds nuw i8, ptr %18, i64 112
  %20 = load ptr, ptr %19, align 8
  %21 = tail call noundef nonnull align 8 dereferenceable(8) ptr %20(ptr noundef nonnull align 8 dereferenceable(120) %13, ptr noundef nonnull align 8 dereferenceable(8) %17)
  br label %22

22:                                               ; preds = %12, %5
  %23 = load ptr, ptr %3, align 8, !tbaa !3
  %24 = getelementptr inbounds nuw i8, ptr %23, i64 8
  %25 = load ptr, ptr %24, align 8
  %26 = tail call noundef i32 %25(ptr noundef nonnull align 8 dereferenceable(8) %3) #24
  %27 = tail call noundef i32 @_ZN19OpenColorIO_v2_5dev26CombineTransformDirectionsENS_18TransformDirectionES0_(i32 noundef %4, i32 noundef %26)
  switch i32 %27, label %.loopexit [
    i32 0, label %.preheader
    i32 1, label %69
  ]

.preheader:                                       ; preds = %22
  %28 = load ptr, ptr %3, align 8, !tbaa !3
  %29 = getelementptr inbounds nuw i8, ptr %28, i64 88
  %30 = load ptr, ptr %29, align 8
  %31 = tail call noundef i32 %30(ptr noundef nonnull align 8 dereferenceable(8) %3) #24
  %32 = icmp sgt i32 %31, 0
  br i1 %32, label %.lr.ph37, label %.loopexit

.lr.ph37:                                         ; preds = %.preheader
  %33 = getelementptr inbounds nuw i8, ptr %6, i64 8
  br label %34

34:                                               ; preds = %.lr.ph37, %_ZNSt12__shared_ptrIKN19OpenColorIO_v2_5dev9TransformELN9__gnu_cxx12_Lock_policyE2EED2Ev.exit
  %.02636 = phi i32 [ 0, %.lr.ph37 ], [ %61, %_ZNSt12__shared_ptrIKN19OpenColorIO_v2_5dev9TransformELN9__gnu_cxx12_Lock_policyE2EED2Ev.exit ]
  call void @llvm.lifetime.start.p0(i64 16, ptr nonnull %6) #24
  %35 = load ptr, ptr %3, align 8, !tbaa !3
  %36 = getelementptr inbounds nuw i8, ptr %35, i64 72
  %37 = load ptr, ptr %36, align 8
  call void %37(ptr dead_on_unwind nonnull writable sret(%"class.std::shared_ptr.17") align 8 %6, ptr noundef nonnull align 8 dereferenceable(8) %3, i32 noundef %.02636)
  invoke void @_ZN19OpenColorIO_v2_5dev8BuildOpsERNS_10OpRcPtrVecERKNS_6ConfigERKSt10shared_ptrIKNS_7ContextEERKS5_IKNS_9TransformEENS_18TransformDirectionE(ptr noundef nonnull align 8 dereferenceable(144) %0, ptr noundef nonnull align 8 dereferenceable(8) %1, ptr noundef nonnull align 8 dereferenceable(16) %2, ptr noundef nonnull align 8 dereferenceable(16) %6, i32 noundef 0)
          to label %38 unwind label %67

38:                                               ; preds = %34
  %39 = load ptr, ptr %33, align 8, !tbaa !39
  %.not.i.i = icmp eq ptr %39, null
  br i1 %.not.i.i, label %_ZNSt12__shared_ptrIKN19OpenColorIO_v2_5dev9TransformELN9__gnu_cxx12_Lock_policyE2EED2Ev.exit, label %40

40:                                               ; preds = %38
  %41 = getelementptr inbounds nuw i8, ptr %39, i64 8
  %42 = load atomic i64, ptr %41 acquire, align 8
  %43 = icmp eq i64 %42, 4294967297
  %44 = trunc i64 %42 to i32
  br i1 %43, label %45, label %53

45:                                               ; preds = %40
  store i32 0, ptr %41, align 8, !tbaa !40
  %46 = getelementptr inbounds nuw i8, ptr %39, i64 12
  store i32 0, ptr %46, align 4, !tbaa !43
  %47 = load ptr, ptr %39, align 8, !tbaa !3
  %48 = getelementptr inbounds nuw i8, ptr %47, i64 16
  %49 = load ptr, ptr %48, align 8
  call void %49(ptr noundef nonnull align 8 dereferenceable(16) %39) #24
  %50 = load ptr, ptr %39, align 8, !tbaa !3
  %51 = getelementptr inbounds nuw i8, ptr %50, i64 24
  %52 = load ptr, ptr %51, align 8
  call void %52(ptr noundef nonnull align 8 dereferenceable(16) %39) #24
  br label %_ZNSt12__shared_ptrIKN19OpenColorIO_v2_5dev9TransformELN9__gnu_cxx12_Lock_policyE2EED2Ev.exit

53:                                               ; preds = %40
  %54 = load i8, ptr @__libc_single_threaded, align 1, !tbaa !56
  %.not.i.i.i = icmp eq i8 %54, 0
  br i1 %.not.i.i.i, label %57, label %55

55:                                               ; preds = %53
  %56 = add nsw i32 %44, -1
  store i32 %56, ptr %41, align 4, !tbaa !57
  br label %_ZN9__gnu_cxx27__exchange_and_add_dispatchEPii.exit.i.i.i

57:                                               ; preds = %53
  %58 = atomicrmw volatile add ptr %41, i32 -1 acq_rel, align 4
  br label %_ZN9__gnu_cxx27__exchange_and_add_dispatchEPii.exit.i.i.i

_ZN9__gnu_cxx27__exchange_and_add_dispatchEPii.exit.i.i.i: ; preds = %57, %55
  %.0.i.i.i.i = phi i32 [ %44, %55 ], [ %58, %57 ]
  %59 = icmp eq i32 %.0.i.i.i.i, 1
  br i1 %59, label %60, label %_ZNSt12__shared_ptrIKN19OpenColorIO_v2_5dev9TransformELN9__gnu_cxx12_Lock_policyE2EED2Ev.exit, !prof !55

60:                                               ; preds = %_ZN9__gnu_cxx27__exchange_and_add_dispatchEPii.exit.i.i.i
  call void @_ZNSt16_Sp_counted_baseILN9__gnu_cxx12_Lock_policyE2EE24_M_release_last_use_coldEv(ptr noundef nonnull align 8 dereferenceable(16) %39) #24
  br label %_ZNSt12__shared_ptrIKN19OpenColorIO_v2_5dev9TransformELN9__gnu_cxx12_Lock_policyE2EED2Ev.exit

_ZNSt12__shared_ptrIKN19OpenColorIO_v2_5dev9TransformELN9__gnu_cxx12_Lock_policyE2EED2Ev.exit: ; preds = %38, %45, %_ZN9__gnu_cxx27__exchange_and_add_dispatchEPii.exit.i.i.i, %60
  call void @llvm.lifetime.end.p0(i64 16, ptr nonnull %6) #24
  %61 = add nuw nsw i32 %.02636, 1
  %62 = load ptr, ptr %3, align 8, !tbaa !3
  %63 = getelementptr inbounds nuw i8, ptr %62, i64 88
  %64 = load ptr, ptr %63, align 8
  %65 = call noundef i32 %64(ptr noundef nonnull align 8 dereferenceable(8) %3) #24
  %66 = icmp slt i32 %61, %65
  br i1 %66, label %34, label %.loopexit, !llvm.loop !92

67:                                               ; preds = %34
  %68 = landingpad { ptr, i32 }
          cleanup
  call void @_ZNSt12__shared_ptrIKN19OpenColorIO_v2_5dev9TransformELN9__gnu_cxx12_Lock_policyE2EED2Ev(ptr noundef nonnull align 8 dereferenceable(16) %6) #24
  call void @llvm.lifetime.end.p0(i64 16, ptr nonnull %6) #24
  br label %106

69:                                               ; preds = %22
  %70 = load ptr, ptr %3, align 8, !tbaa !3
  %71 = getelementptr inbounds nuw i8, ptr %70, i64 88
  %72 = load ptr, ptr %71, align 8
  %73 = tail call noundef i32 %72(ptr noundef nonnull align 8 dereferenceable(8) %3) #24
  %74 = icmp sgt i32 %73, 0
  br i1 %74, label %.lr.ph, label %.loopexit

.lr.ph:                                           ; preds = %69
  %75 = getelementptr inbounds nuw i8, ptr %7, i64 8
  br label %76

76:                                               ; preds = %.lr.ph, %_ZNSt12__shared_ptrIKN19OpenColorIO_v2_5dev9TransformELN9__gnu_cxx12_Lock_policyE2EED2Ev.exit32
  %.035.in = phi i32 [ %73, %.lr.ph ], [ %.035, %_ZNSt12__shared_ptrIKN19OpenColorIO_v2_5dev9TransformELN9__gnu_cxx12_Lock_policyE2EED2Ev.exit32 ]
  %.035 = add nsw i32 %.035.in, -1
  call void @llvm.lifetime.start.p0(i64 16, ptr nonnull %7) #24
  %77 = load ptr, ptr %3, align 8, !tbaa !3
  %78 = getelementptr inbounds nuw i8, ptr %77, i64 72
  %79 = load ptr, ptr %78, align 8
  call void %79(ptr dead_on_unwind nonnull writable sret(%"class.std::shared_ptr.17") align 8 %7, ptr noundef nonnull align 8 dereferenceable(8) %3, i32 noundef %.035)
  invoke void @_ZN19OpenColorIO_v2_5dev8BuildOpsERNS_10OpRcPtrVecERKNS_6ConfigERKSt10shared_ptrIKNS_7ContextEERKS5_IKNS_9TransformEENS_18TransformDirectionE(ptr noundef nonnull align 8 dereferenceable(144) %0, ptr noundef nonnull align 8 dereferenceable(8) %1, ptr noundef nonnull align 8 dereferenceable(16) %2, ptr noundef nonnull align 8 dereferenceable(16) %7, i32 noundef 1)
          to label %80 unwind label %104

80:                                               ; preds = %76
  %81 = load ptr, ptr %75, align 8, !tbaa !39
  %.not.i.i28 = icmp eq ptr %81, null
  br i1 %.not.i.i28, label %_ZNSt12__shared_ptrIKN19OpenColorIO_v2_5dev9TransformELN9__gnu_cxx12_Lock_policyE2EED2Ev.exit32, label %82

82:                                               ; preds = %80
  %83 = getelementptr inbounds nuw i8, ptr %81, i64 8
  %84 = load atomic i64, ptr %83 acquire, align 8
  %85 = icmp eq i64 %84, 4294967297
  %86 = trunc i64 %84 to i32
  br i1 %85, label %87, label %95

87:                                               ; preds = %82
  store i32 0, ptr %83, align 8, !tbaa !40
  %88 = getelementptr inbounds nuw i8, ptr %81, i64 12
  store i32 0, ptr %88, align 4, !tbaa !43
  %89 = load ptr, ptr %81, align 8, !tbaa !3
  %90 = getelementptr inbounds nuw i8, ptr %89, i64 16
  %91 = load ptr, ptr %90, align 8
  call void %91(ptr noundef nonnull align 8 dereferenceable(16) %81) #24
  %92 = load ptr, ptr %81, align 8, !tbaa !3
  %93 = getelementptr inbounds nuw i8, ptr %92, i64 24
  %94 = load ptr, ptr %93, align 8
  call void %94(ptr noundef nonnull align 8 dereferenceable(16) %81) #24
  br label %_ZNSt12__shared_ptrIKN19OpenColorIO_v2_5dev9TransformELN9__gnu_cxx12_Lock_policyE2EED2Ev.exit32

95:                                               ; preds = %82
  %96 = load i8, ptr @__libc_single_threaded, align 1, !tbaa !56
  %.not.i.i.i29 = icmp eq i8 %96, 0
  br i1 %.not.i.i.i29, label %99, label %97

97:                                               ; preds = %95
  %98 = add nsw i32 %86, -1
  store i32 %98, ptr %83, align 4, !tbaa !57
  br label %_ZN9__gnu_cxx27__exchange_and_add_dispatchEPii.exit.i.i.i30

99:                                               ; preds = %95
  %100 = atomicrmw volatile add ptr %83, i32 -1 acq_rel, align 4
  br label %_ZN9__gnu_cxx27__exchange_and_add_dispatchEPii.exit.i.i.i30

_ZN9__gnu_cxx27__exchange_and_add_dispatchEPii.exit.i.i.i30: ; preds = %99, %97
  %.0.i.i.i.i31 = phi i32 [ %86, %97 ], [ %100, %99 ]
  %101 = icmp eq i32 %.0.i.i.i.i31, 1
  br i1 %101, label %102, label %_ZNSt12__shared_ptrIKN19OpenColorIO_v2_5dev9TransformELN9__gnu_cxx12_Lock_policyE2EED2Ev.exit32, !prof !55

102:                                              ; preds = %_ZN9__gnu_cxx27__exchange_and_add_dispatchEPii.exit.i.i.i30
  call void @_ZNSt16_Sp_counted_baseILN9__gnu_cxx12_Lock_policyE2EE24_M_release_last_use_coldEv(ptr noundef nonnull align 8 dereferenceable(16) %81) #24
  br label %_ZNSt12__shared_ptrIKN19OpenColorIO_v2_5dev9TransformELN9__gnu_cxx12_Lock_policyE2EED2Ev.exit32

_ZNSt12__shared_ptrIKN19OpenColorIO_v2_5dev9TransformELN9__gnu_cxx12_Lock_policyE2EED2Ev.exit32: ; preds = %80, %87, %_ZN9__gnu_cxx27__exchange_and_add_dispatchEPii.exit.i.i.i30, %102
  call void @llvm.lifetime.end.p0(i64 16, ptr nonnull %7) #24
  %103 = icmp samesign ugt i32 %.035.in, 1
  br i1 %103, label %76, label %.loopexit, !llvm.loop !93

104:                                              ; preds = %76
  %105 = landingpad { ptr, i32 }
          cleanup
  call void @_ZNSt12__shared_ptrIKN19OpenColorIO_v2_5dev9TransformELN9__gnu_cxx12_Lock_policyE2EED2Ev(ptr noundef nonnull align 8 dereferenceable(16) %7) #24
  call void @llvm.lifetime.end.p0(i64 16, ptr nonnull %7) #24
  br label %106

.loopexit:                                        ; preds = %_ZNSt12__shared_ptrIKN19OpenColorIO_v2_5dev9TransformELN9__gnu_cxx12_Lock_policyE2EED2Ev.exit32, %_ZNSt12__shared_ptrIKN19OpenColorIO_v2_5dev9TransformELN9__gnu_cxx12_Lock_policyE2EED2Ev.exit, %69, %.preheader, %22
  ret void

106:                                              ; preds = %104, %67
  %.pn = phi { ptr, i32 } [ %105, %104 ], [ %68, %67 ]
  resume { ptr, i32 } %.pn
}